target datalayout = "e-m:e-p270:32:32-p271:32:32-p272:64:64-i64:64-i128:128-f80:128-n8:16:32:64-S128"
target triple = "x86_64-pc-linux-gnu"

%struct.Base_entry = type { ptr, ptr, i32, i8 }
%struct.Signer = type { i32, i32, i16, i8, i8, ptr, i32, ptr, ptr, ptr, [20 x i8], [20 x i8], i8, ptr }

; Function Attrs: nounwind uwtable
define void @FreeNameSubtrees(ptr noundef %0, ptr noundef %1) #0 {
  %3 = alloca ptr, align 8
  %4 = alloca ptr, align 8
  %5 = alloca ptr, align 8
  %6 = alloca ptr, align 8
  %7 = alloca ptr, align 8
  store ptr %0, ptr %3, align 8, !tbaa !118
  store ptr %1, ptr %4, align 8, !tbaa !64
  br label %8

8:                                                ; preds = %34, %2
  %9 = load ptr, ptr %3, align 8, !tbaa !118
  %10 = icmp ne ptr %9, null
  br i1 %10, label %11, label %36

11:                                               ; preds = %8
  call void @llvm.lifetime.start.p0(i64 8, ptr %5) #9
  %12 = load ptr, ptr %3, align 8, !tbaa !118
  %13 = getelementptr inbounds nuw %struct.Base_entry, ptr %12, i32 0, i32 0
  %14 = load ptr, ptr %13, align 8, !tbaa !119
  store ptr %14, ptr %5, align 8, !tbaa !118
  br label %15

15:                                               ; preds = %11
  call void @llvm.lifetime.start.p0(i64 8, ptr %6) #9
  %16 = load ptr, ptr %3, align 8, !tbaa !118
  %17 = getelementptr inbounds nuw %struct.Base_entry, ptr %16, i32 0, i32 1
  %18 = load ptr, ptr %17, align 8, !tbaa !121
  store ptr %18, ptr %6, align 8, !tbaa !64
  %19 = load ptr, ptr %6, align 8, !tbaa !64
  %20 = icmp ne ptr %19, null
  br i1 %20, label %21, label %23

21:                                               ; preds = %15
  %22 = load ptr, ptr %6, align 8, !tbaa !64
  call void @wolfSSL_Free(ptr noundef %22)
  br label %23

23:                                               ; preds = %21, %15
  call void @llvm.lifetime.end.p0(i64 8, ptr %6) #9
  br label %24

24:                                               ; preds = %23
  br label %25

25:                                               ; preds = %24
  br label %26

26:                                               ; preds = %25
  call void @llvm.lifetime.start.p0(i64 8, ptr %7) #9
  %27 = load ptr, ptr %3, align 8, !tbaa !118
  store ptr %27, ptr %7, align 8, !tbaa !64
  %28 = load ptr, ptr %7, align 8, !tbaa !64
  %29 = icmp ne ptr %28, null
  br i1 %29, label %30, label %32

30:                                               ; preds = %26
  %31 = load ptr, ptr %7, align 8, !tbaa !64
  call void @wolfSSL_Free(ptr noundef %31)
  br label %32

32:                                               ; preds = %30, %26
  call void @llvm.lifetime.end.p0(i64 8, ptr %7) #9
  br label %33

33:                                               ; preds = %32
  br label %34

34:                                               ; preds = %33
  %35 = load ptr, ptr %5, align 8, !tbaa !118
  store ptr %35, ptr %3, align 8, !tbaa !118
  call void @llvm.lifetime.end.p0(i64 8, ptr %5) #9
  br label %8, !llvm.loop !122

36:                                               ; preds = %8
  ret void
}

; Function Attrs: nounwind uwtable
define void @FreeSigner(ptr noundef %0, ptr noundef %1) #0 {
  %3 = alloca ptr, align 8
  %4 = alloca ptr, align 8
  %5 = alloca ptr, align 8
  %6 = alloca ptr, align 8
  %7 = alloca ptr, align 8
  store ptr %0, ptr %3, align 8, !tbaa !166
  store ptr %1, ptr %4, align 8, !tbaa !64
  br label %8

8:                                                ; preds = %2
  call void @llvm.lifetime.start.p0(i64 8, ptr %5) #9
  %9 = load ptr, ptr %3, align 8, !tbaa !166
  %10 = getelementptr inbounds nuw %struct.Signer, ptr %9, i32 0, i32 7
  %11 = load ptr, ptr %10, align 8, !tbaa !196
  store ptr %11, ptr %5, align 8, !tbaa !64
  %12 = load ptr, ptr %5, align 8, !tbaa !64
  %13 = icmp ne ptr %12, null
  br i1 %13, label %14, label %16

14:                                               ; preds = %8
  %15 = load ptr, ptr %5, align 8, !tbaa !64
  call void @wolfSSL_Free(ptr noundef %15)
  br label %16

16:                                               ; preds = %14, %8
  call void @llvm.lifetime.end.p0(i64 8, ptr %5) #9
  br label %17

17:                                               ; preds = %16
  br label %18

18:                                               ; preds = %17
  call void @llvm.lifetime.start.p0(i64 8, ptr %6) #9
  %19 = load ptr, ptr %3, align 8, !tbaa !166
  %20 = getelementptr inbounds nuw %struct.Signer, ptr %19, i32 0, i32 5
  %21 = load ptr, ptr %20, align 8, !tbaa !175
  store ptr %21, ptr %6, align 8, !tbaa !64
  %22 = load ptr, ptr %6, align 8, !tbaa !64
  %23 = icmp ne ptr %22, null
  br i1 %23, label %24, label %26

24:                                               ; preds = %18
  %25 = load ptr, ptr %6, align 8, !tbaa !64
  call void @wolfSSL_Free(ptr noundef %25)
  br label %26

26:                                               ; preds = %24, %18
  call void @llvm.lifetime.end.p0(i64 8, ptr %6) #9
  br label %27

27:                                               ; preds = %26
  %28 = load ptr, ptr %3, align 8, !tbaa !166
  %29 = getelementptr inbounds nuw %struct.Signer, ptr %28, i32 0, i32 8
  %30 = load ptr, ptr %29, align 8, !tbaa !188
  %31 = icmp ne ptr %30, null
  br i1 %31, label %32, label %37

32:                                               ; preds = %27
  %33 = load ptr, ptr %3, align 8, !tbaa !166
  %34 = getelementptr inbounds nuw %struct.Signer, ptr %33, i32 0, i32 8
  %35 = load ptr, ptr %34, align 8, !tbaa !188
  %36 = load ptr, ptr %4, align 8, !tbaa !64
  call void @FreeNameSubtrees(ptr noundef %35, ptr noundef %36)
  br label %37

37:                                               ; preds = %32, %27
  %38 = load ptr, ptr %3, align 8, !tbaa !166
  %39 = getelementptr inbounds nuw %struct.Signer, ptr %38, i32 0, i32 9
  %40 = load ptr, ptr %39, align 8, !tbaa !187
  %41 = icmp ne ptr %40, null
  br i1 %41, label %42, label %47

42:                                               ; preds = %37
  %43 = load ptr, ptr %3, align 8, !tbaa !166
  %44 = getelementptr inbounds nuw %struct.Signer, ptr %43, i32 0, i32 9
  %45 = load ptr, ptr %44, align 8, !tbaa !187
  %46 = load ptr, ptr %4, align 8, !tbaa !64
  call void @FreeNameSubtrees(ptr noundef %45, ptr noundef %46)
  br label %47

47:                                               ; preds = %42, %37
  br label %48

48:                                               ; preds = %47
  call void @llvm.lifetime.start.p0(i64 8, ptr %7) #9
  %49 = load ptr, ptr %3, align 8, !tbaa !166
  store ptr %49, ptr %7, align 8, !tbaa !64
  %50 = load ptr, ptr %7, align 8, !tbaa !64
  %51 = icmp ne ptr %50, null
  br i1 %51, label %52, label %54

52:                                               ; preds = %48
  %53 = load ptr, ptr %7, align 8, !tbaa !64
  call void @wolfSSL_Free(ptr noundef %53)
  br label %54

54:                                               ; preds = %52, %48
  call void @llvm.lifetime.end.p0(i64 8, ptr %7) #9
  br label %55

55:                                               ; preds = %54
  ret void
}