; Function Attrs: nounwind uwtable
define void @FreeSigner(ptr noundef %0, ptr noundef readnone captures(none) %1) local_unnamed_addr #2 {
  %3 = getelementptr inbounds nuw i8, ptr %0, i64 32
  %4 = load ptr, ptr %3, align 8, !tbaa !187
  %.not = icmp eq ptr %4, null
  br i1 %.not, label %6, label %5

5:                                                ; preds = %2
  tail call void @wolfSSL_Free(ptr noundef nonnull %4) #22
  br label %6

6:                                                ; preds = %5, %2
  %7 = getelementptr inbounds nuw i8, ptr %0, i64 16
  %8 = load ptr, ptr %7, align 8, !tbaa !166
  %.not19 = icmp eq ptr %8, null
  br i1 %.not19, label %10, label %9

9:                                                ; preds = %6
  tail call void @wolfSSL_Free(ptr noundef nonnull %8) #22
  br label %10

10:                                               ; preds = %9, %6
  %11 = getelementptr inbounds nuw i8, ptr %0, i64 40
  %12 = load ptr, ptr %11, align 8, !tbaa !176
  %.not20 = icmp eq ptr %12, null
  br i1 %.not20, label %FreeNameSubtrees.exit, label %.lr.ph.i

.lr.ph.i:                                         ; preds = %10, %17
  %.012.i = phi ptr [ %13, %17 ], [ %12, %10 ]
  %13 = load ptr, ptr %.012.i, align 8, !tbaa !89
  %14 = getelementptr inbounds nuw i8, ptr %.012.i, i64 8
  %15 = load ptr, ptr %14, align 8, !tbaa !91
  %.not10.i = icmp eq ptr %15, null
  br i1 %.not10.i, label %17, label %16

16:                                               ; preds = %.lr.ph.i
  tail call void @wolfSSL_Free(ptr noundef nonnull %15) #22
  br label %17

17:                                               ; preds = %16, %.lr.ph.i
  tail call void @wolfSSL_Free(ptr noundef nonnull %.012.i) #22
  %.not.i = icmp eq ptr %13, null
  br i1 %.not.i, label %FreeNameSubtrees.exit, label %.lr.ph.i, !llvm.loop !92

FreeNameSubtrees.exit:                            ; preds = %17, %10
  %18 = getelementptr inbounds nuw i8, ptr %0, i64 48
  %19 = load ptr, ptr %18, align 8, !tbaa !175
  %.not21 = icmp eq ptr %19, null
  br i1 %.not21, label %FreeNameSubtrees.exit28.thread, label %.lr.ph.i24

.lr.ph.i24:                                       ; preds = %FreeNameSubtrees.exit, %24
  %.012.i25 = phi ptr [ %20, %24 ], [ %19, %FreeNameSubtrees.exit ]
  %20 = load ptr, ptr %.012.i25, align 8, !tbaa !89
  %21 = getelementptr inbounds nuw i8, ptr %.012.i25, i64 8
  %22 = load ptr, ptr %21, align 8, !tbaa !91
  %.not10.i26 = icmp eq ptr %22, null
  br i1 %.not10.i26, label %24, label %23

23:                                               ; preds = %.lr.ph.i24
  tail call void @wolfSSL_Free(ptr noundef nonnull %22) #22
  br label %24

24:                                               ; preds = %23, %.lr.ph.i24
  tail call void @wolfSSL_Free(ptr noundef nonnull %.012.i25) #22
  %.not.i27 = icmp eq ptr %20, null
  br i1 %.not.i27, label %FreeNameSubtrees.exit28, label %.lr.ph.i24, !llvm.loop !92

FreeNameSubtrees.exit28:                          ; preds = %24
  %.not22 = icmp eq ptr %0, null
  br i1 %.not22, label %25, label %FreeNameSubtrees.exit28.thread

FreeNameSubtrees.exit28.thread:                   ; preds = %FreeNameSubtrees.exit, %FreeNameSubtrees.exit28
  tail call void @wolfSSL_Free(ptr noundef nonnull %0) #22
  br label %25

25:                                               ; preds = %FreeNameSubtrees.exit28.thread, %FreeNameSubtrees.exit28
  ret void
}